target datalayout = "e-m:e-p270:32:32-p271:32:32-p272:64:64-i64:64-i128:128-f80:128-n8:16:32:64-S128"
target triple = "x86_64-pc-linux-gnu"

%"class.google::protobuf::internal::InternalMetadata" = type { i64 }
%"class.google::protobuf::internal::HasBits" = type { [1 x i32] }
%"class.google::protobuf::RepeatedField.0" = type { i32, i32, ptr }
%"class.google::protobuf::Message" = type { %"class.google::protobuf::MessageLite" }
%"class.google::protobuf::MessageLite" = type { ptr, %"class.google::protobuf::internal::InternalMetadata" }
%"struct.std::atomic" = type { %"struct.std::__atomic_base" }
%"struct.std::__atomic_base" = type { i32 }
%"class.google::protobuf::internal::CachedSize" = type { %"struct.std::atomic" }
%"class.opencv_caffe::PriorBoxParameter" = type { %"class.google::protobuf::Message", %"class.google::protobuf::internal::HasBits", %"class.google::protobuf::internal::CachedSize", %"class.google::protobuf::RepeatedField.0", %"class.google::protobuf::RepeatedField.0", %"class.google::protobuf::RepeatedField.0", %"class.google::protobuf::RepeatedField.0", %"class.google::protobuf::RepeatedField.0", %"class.google::protobuf::RepeatedField.0", %"class.google::protobuf::RepeatedField.0", %"class.google::protobuf::RepeatedField.0", i32, i32, i32, float, float, float, i8, i8, float }

; Function Attrs: alwaysinline mustprogress nounwind uwtable
define linkonce_odr hidden noundef zeroext i1 @_ZNK6google8protobuf8internal16InternalMetadata19HasUnknownFieldsTagEv(ptr noundef nonnull align 8 dereferenceable(8) %0) #13 comdat align 2 {
  %2 = alloca ptr, align 8
  store ptr %0, ptr %2, align 8, !tbaa !32
  %3 = load ptr, ptr %2, align 8
  %4 = getelementptr inbounds nuw %"class.google::protobuf::internal::InternalMetadata", ptr %3, i32 0, i32 0
  %5 = load i64, ptr %4, align 8, !tbaa !1438
  %6 = and i64 %5, 1
  %7 = icmp ne i64 %6, 0
  ret i1 %7
}

; Function Attrs: alwaysinline mustprogress uwtable
define linkonce_odr hidden noundef zeroext i1 @_ZNK6google8protobuf8internal16InternalMetadata19have_unknown_fieldsEv(ptr noundef nonnull align 8 dereferenceable(8) %0) #8 comdat align 2 {
  %2 = alloca ptr, align 8
  store ptr %0, ptr %2, align 8, !tbaa !32
  %3 = load ptr, ptr %2, align 8
  %4 = call noundef zeroext i1 @_ZNK6google8protobuf8internal16InternalMetadata19HasUnknownFieldsTagEv(ptr noundef nonnull align 8 dereferenceable(8) %3)
  ret i1 %4
}

; Function Attrs: alwaysinline mustprogress uwtable
define linkonce_odr hidden void @_ZN6google8protobuf8internal16InternalMetadata5ClearINS0_15UnknownFieldSetEEEvv(ptr noundef nonnull align 8 dereferenceable(8) %0) #8 comdat align 2 {
  %2 = alloca ptr, align 8
  store ptr %0, ptr %2, align 8, !tbaa !32
  %3 = load ptr, ptr %2, align 8
  %4 = call noundef zeroext i1 @_ZNK6google8protobuf8internal16InternalMetadata19have_unknown_fieldsEv(ptr noundef nonnull align 8 dereferenceable(8) %3)
  br i1 %4, label %5, label %6

5:                                                ; preds = %1
  call void @_ZN6google8protobuf8internal16InternalMetadata7DoClearINS0_15UnknownFieldSetEEEvv(ptr noundef nonnull align 8 dereferenceable(8) %3)
  br label %6

6:                                                ; preds = %5, %1
  ret void
}

; Function Attrs: alwaysinline mustprogress nounwind uwtable
define linkonce_odr hidden void @_ZN6google8protobuf8internal7HasBitsILm1EE5ClearEv(ptr noundef nonnull align 4 dereferenceable(4) %0) #13 comdat align 2 {
  %2 = alloca ptr, align 8
  store ptr %0, ptr %2, align 8, !tbaa !87
  %3 = load ptr, ptr %2, align 8
  %4 = getelementptr inbounds nuw %"class.google::protobuf::internal::HasBits", ptr %3, i32 0, i32 0
  %5 = getelementptr inbounds [1 x i32], ptr %4, i64 0, i64 0
  call void @llvm.memset.p0.i64(ptr align 4 %5, i8 0, i64 4, i1 false)
  ret void
}

; Function Attrs: alwaysinline mustprogress nounwind uwtable
define linkonce_odr hidden noundef nonnull align 4 dereferenceable(4) ptr @_ZN6google8protobuf8internal7HasBitsILm1EEixEi(ptr noundef nonnull align 4 dereferenceable(4) %0, i32 noundef %1) #13 comdat align 2 {
  %3 = alloca ptr, align 8
  %4 = alloca i32, align 4
  store ptr %0, ptr %3, align 8, !tbaa !87
  store i32 %1, ptr %4, align 4, !tbaa !8
  %5 = load ptr, ptr %3, align 8
  %6 = getelementptr inbounds nuw %"class.google::protobuf::internal::HasBits", ptr %5, i32 0, i32 0
  %7 = load i32, ptr %4, align 4, !tbaa !8
  %8 = sext i32 %7 to i64
  %9 = getelementptr inbounds [1 x i32], ptr %6, i64 0, i64 %8
  ret ptr %9
}

; Function Attrs: inlinehint mustprogress nounwind uwtable
define available_externally void @_ZN6google8protobuf13RepeatedFieldIfE5ClearEv(ptr noundef nonnull align 8 dereferenceable(16) %0) #7 align 2 {
  %2 = alloca ptr, align 8
  store ptr %0, ptr %2, align 8, !tbaa !89
  %3 = load ptr, ptr %2, align 8
  %4 = getelementptr inbounds nuw %"class.google::protobuf::RepeatedField.0", ptr %3, i32 0, i32 0
  store i32 0, ptr %4, align 8, !tbaa !91
  ret void
}

; Function Attrs: mustprogress uwtable
define hidden void @_ZN12opencv_caffe17PriorBoxParameter5ClearEv(ptr noundef nonnull align 8 dereferenceable(184) %0) unnamed_addr #4 align 2 {
  %2 = alloca ptr, align 8
  %3 = alloca i32, align 4
  store ptr %0, ptr %2, align 8, !tbaa !188
  %4 = load ptr, ptr %2, align 8
  call void @llvm.lifetime.start.p0(i64 4, ptr %3) #3
  store i32 0, ptr %3, align 4, !tbaa !8
  %5 = getelementptr inbounds nuw %"class.opencv_caffe::PriorBoxParameter", ptr %4, i32 0, i32 3
  call void @_ZN6google8protobuf13RepeatedFieldIfE5ClearEv(ptr noundef nonnull align 8 dereferenceable(16) %5)
  %6 = getelementptr inbounds nuw %"class.opencv_caffe::PriorBoxParameter", ptr %4, i32 0, i32 4
  call void @_ZN6google8protobuf13RepeatedFieldIfE5ClearEv(ptr noundef nonnull align 8 dereferenceable(16) %6)
  %7 = getelementptr inbounds nuw %"class.opencv_caffe::PriorBoxParameter", ptr %4, i32 0, i32 5
  call void @_ZN6google8protobuf13RepeatedFieldIfE5ClearEv(ptr noundef nonnull align 8 dereferenceable(16) %7)
  %8 = getelementptr inbounds nuw %"class.opencv_caffe::PriorBoxParameter", ptr %4, i32 0, i32 6
  call void @_ZN6google8protobuf13RepeatedFieldIfE5ClearEv(ptr noundef nonnull align 8 dereferenceable(16) %8)
  %9 = getelementptr inbounds nuw %"class.opencv_caffe::PriorBoxParameter", ptr %4, i32 0, i32 7
  call void @_ZN6google8protobuf13RepeatedFieldIfE5ClearEv(ptr noundef nonnull align 8 dereferenceable(16) %9)
  %10 = getelementptr inbounds nuw %"class.opencv_caffe::PriorBoxParameter", ptr %4, i32 0, i32 8
  call void @_ZN6google8protobuf13RepeatedFieldIfE5ClearEv(ptr noundef nonnull align 8 dereferenceable(16) %10)
  %11 = getelementptr inbounds nuw %"class.opencv_caffe::PriorBoxParameter", ptr %4, i32 0, i32 9
  call void @_ZN6google8protobuf13RepeatedFieldIfE5ClearEv(ptr noundef nonnull align 8 dereferenceable(16) %11)
  %12 = getelementptr inbounds nuw %"class.opencv_caffe::PriorBoxParameter", ptr %4, i32 0, i32 10
  call void @_ZN6google8protobuf13RepeatedFieldIfE5ClearEv(ptr noundef nonnull align 8 dereferenceable(16) %12)
  %13 = getelementptr inbounds nuw %"class.opencv_caffe::PriorBoxParameter", ptr %4, i32 0, i32 1
  %14 = call noundef nonnull align 4 dereferenceable(4) ptr @_ZN6google8protobuf8internal7HasBitsILm1EEixEi(ptr noundef nonnull align 4 dereferenceable(4) %13, i32 noundef 0)
  %15 = load i32, ptr %14, align 4, !tbaa !8
  store i32 %15, ptr %3, align 4, !tbaa !8
  %16 = load i32, ptr %3, align 4, !tbaa !8
  %17 = and i32 %16, 255
  %18 = icmp ne i32 %17, 0
  br i1 %18, label %19, label %29

19:                                               ; preds = %1
  %20 = getelementptr inbounds nuw %"class.opencv_caffe::PriorBoxParameter", ptr %4, i32 0, i32 11
  %21 = getelementptr inbounds nuw %"class.opencv_caffe::PriorBoxParameter", ptr %4, i32 0, i32 16
  %22 = getelementptr inbounds nuw %"class.opencv_caffe::PriorBoxParameter", ptr %4, i32 0, i32 11
  %23 = ptrtoint ptr %21 to i64
  %24 = ptrtoint ptr %22 to i64
  %25 = sub i64 %23, %24
  %26 = add i64 %25, 4
  call void @llvm.memset.p0.i64(ptr align 8 %20, i8 0, i64 %26, i1 false)
  %27 = getelementptr inbounds nuw %"class.opencv_caffe::PriorBoxParameter", ptr %4, i32 0, i32 17
  store i8 1, ptr %27, align 8, !tbaa !190
  %28 = getelementptr inbounds nuw %"class.opencv_caffe::PriorBoxParameter", ptr %4, i32 0, i32 18
  store i8 1, ptr %28, align 1, !tbaa !192
  br label %29

29:                                               ; preds = %19, %1
  %30 = getelementptr inbounds nuw %"class.opencv_caffe::PriorBoxParameter", ptr %4, i32 0, i32 19
  store float 5.000000e-01, ptr %30, align 4, !tbaa !193
  %31 = getelementptr inbounds nuw %"class.opencv_caffe::PriorBoxParameter", ptr %4, i32 0, i32 1
  call void @_ZN6google8protobuf8internal7HasBitsILm1EE5ClearEv(ptr noundef nonnull align 4 dereferenceable(4) %31)
  %32 = getelementptr inbounds nuw %"class.google::protobuf::MessageLite", ptr %4, i32 0, i32 1
  call void @_ZN6google8protobuf8internal16InternalMetadata5ClearINS0_15UnknownFieldSetEEEvv(ptr noundef nonnull align 8 dereferenceable(8) %32)
  call void @llvm.lifetime.end.p0(i64 4, ptr %3) #3
  ret void
}

; Function Attrs: mustprogress uwtable
define hidden void @_ZN12opencv_caffe17PriorBoxParameter8CopyFromERKS0_(ptr noundef nonnull align 8 dereferenceable(184) %0, ptr noundef nonnull align 8 dereferenceable(184) %1) #4 align 2 {
  %3 = alloca ptr, align 8
  %4 = alloca ptr, align 8
  store ptr %0, ptr %3, align 8, !tbaa !188
  store ptr %1, ptr %4, align 8, !tbaa !188
  %5 = load ptr, ptr %3, align 8
  %6 = load ptr, ptr %4, align 8, !tbaa !188
  %7 = icmp eq ptr %6, %5
  br i1 %7, label %8, label %9

8:                                                ; preds = %2
  br label %11

9:                                                ; preds = %2
  call void @_ZN12opencv_caffe17PriorBoxParameter5ClearEv(ptr noundef nonnull align 8 dereferenceable(184) %5)
  %10 = load ptr, ptr %4, align 8, !tbaa !188
  call void @_ZN12opencv_caffe17PriorBoxParameter9MergeFromERKS0_(ptr noundef nonnull align 8 dereferenceable(184) %5, ptr noundef nonnull align 8 dereferenceable(184) %10)
  br label %11

11:                                               ; preds = %9, %8
  ret void
}