; Function Attrs: mustprogress uwtable
define hidden void @_ZN12opencv_caffe17PriorBoxParameter8CopyFromERKS0_(ptr noundef nonnull align 8 dereferenceable(184) %0, ptr noundef nonnull readonly align 8 dereferenceable(184) %1) local_unnamed_addr #3 align 2 {
  %3 = icmp eq ptr %1, %0
  br i1 %3, label %26, label %4

4:                                                ; preds = %2
  %5 = getelementptr inbounds nuw i8, ptr %0, i64 24
  store i32 0, ptr %5, align 8, !tbaa !65
  %6 = getelementptr inbounds nuw i8, ptr %0, i64 40
  store i32 0, ptr %6, align 8, !tbaa !65
  %7 = getelementptr inbounds nuw i8, ptr %0, i64 56
  store i32 0, ptr %7, align 8, !tbaa !65
  %8 = getelementptr inbounds nuw i8, ptr %0, i64 72
  store i32 0, ptr %8, align 8, !tbaa !65
  %9 = getelementptr inbounds nuw i8, ptr %0, i64 88
  store i32 0, ptr %9, align 8, !tbaa !65
  %10 = getelementptr inbounds nuw i8, ptr %0, i64 104
  store i32 0, ptr %10, align 8, !tbaa !65
  %11 = getelementptr inbounds nuw i8, ptr %0, i64 120
  store i32 0, ptr %11, align 8, !tbaa !65
  %12 = getelementptr inbounds nuw i8, ptr %0, i64 136
  store i32 0, ptr %12, align 8, !tbaa !65
  %13 = getelementptr inbounds nuw i8, ptr %0, i64 16
  %14 = load i32, ptr %13, align 8, !tbaa !71
  %15 = and i32 %14, 255
  %.not.i = icmp eq i32 %15, 0
  br i1 %.not.i, label %20, label %16

16:                                               ; preds = %4
  %17 = getelementptr inbounds nuw i8, ptr %0, i64 152
  tail call void @llvm.memset.p0.i64(ptr noundef nonnull align 8 dereferenceable(24) %17, i8 0, i64 24, i1 false)
  %18 = getelementptr inbounds nuw i8, ptr %0, i64 176
  store i8 1, ptr %18, align 8, !tbaa !134
  %19 = getelementptr inbounds nuw i8, ptr %0, i64 177
  store i8 1, ptr %19, align 1, !tbaa !136
  br label %20

20:                                               ; preds = %16, %4
  %21 = getelementptr inbounds nuw i8, ptr %0, i64 180
  store float 5.000000e-01, ptr %21, align 4, !tbaa !137
  store i32 0, ptr %13, align 8
  %22 = getelementptr inbounds nuw i8, ptr %0, i64 8
  %23 = load i64, ptr %22, align 8, !tbaa !8
  %24 = and i64 %23, 1
  %.not1.i = icmp eq i64 %24, 0
  br i1 %.not1.i, label %_ZN12opencv_caffe17PriorBoxParameter5ClearEv.exit, label %25

25:                                               ; preds = %20
  tail call void @_ZN6google8protobuf8internal16InternalMetadata7DoClearINS0_15UnknownFieldSetEEEvv(ptr noundef nonnull align 8 dereferenceable(8) %22)
  br label %_ZN12opencv_caffe17PriorBoxParameter5ClearEv.exit

_ZN12opencv_caffe17PriorBoxParameter5ClearEv.exit: ; preds = %20, %25
  tail call void @_ZN12opencv_caffe17PriorBoxParameter9MergeFromERKS0_(ptr noundef nonnull align 8 dereferenceable(184) %0, ptr noundef nonnull align 8 dereferenceable(184) %1)
  br label %26

26:                                               ; preds = %2, %_ZN12opencv_caffe17PriorBoxParameter5ClearEv.exit
  ret void
}